(ikeras_frcnn.config
Config
p0
(dp1
S'use_vertical_flips'
p2
I00
sS'rpn_max_overlap'
p3
F0.7
sS'verbose'
p4
I01
sS'num_rois'
p5
I4
sS'img_channel_mean'
p6
(lp7
F103.939
aF116.779
aF123.68
asS'anchor_box_scales'
p8
(lp9
I128
aI256
aI512
asS'anchor_box_ratios'
p10
(lp11
(lp12
I1
aI1
aa(lp13
F0.7071067811865475
aF1.414213562373095
aa(lp14
F1.414213562373095
aF0.7071067811865475
aasS'rpn_min_overlap'
p15
F0.3
sS'rot_90'
p16
I00
sS'classifier_min_overlap'
p17
F0.1
sS'im_size'
p18
I600
sS'class_mapping'
p19
(dp20
S'T_Shirt'
p21
I1
sS'bg'
p22
I2
sS'Polo_Shirt'
p23
I0
ssS'img_scaling_factor'
p24
F1.0
sS'balanced_classes'
p25
I00
sS'classifier_regr_std'
p26
(lp27
F8.0
aF8.0
aF4.0
aF4.0
asS'model_path'
p28
S'model_frcnn.vgg.hdf5'
p29
sS'classifier_max_overlap'
p30
F0.5
sS'std_scaling'
p31
F4.0
sS'use_horizontal_flips'
p32
I00
sS'rpn_stride'
p33
I16
sS'network'
p34
S'resnet50'
p35
sb.